; Function Attrs: nofree nosync nounwind memory(readwrite, inaccessiblemem: none) uwtable
define void @Llb_ManFlowCleanMarkB_rec(ptr noundef captures(none) %0) local_unnamed_addr #6 {
  %2 = getelementptr inbounds nuw i8, ptr %0, i64 24
  %3 = load i64, ptr %2, align 8
  %4 = and i64 %3, 32
  %5 = icmp eq i64 %4, 0
  br i1 %5, label %tailrecurse._crit_edge, label %tailrecurse

tailrecurse:                                      ; preds = %1, %tailrecurse
  %6 = phi i64 [ %18, %tailrecurse ], [ %3, %1 ]
  %7 = phi ptr [ %17, %tailrecurse ], [ %2, %1 ]
  %.tr5 = phi ptr [ %16, %tailrecurse ], [ %0, %1 ]
  %8 = and i64 %6, -33
  store i64 %8, ptr %7, align 8
  %9 = getelementptr i8, ptr %.tr5, i64 8
  %.val = load ptr, ptr %9, align 8, !tbaa !31
  %10 = ptrtoint ptr %.val to i64
  %11 = and i64 %10, -2
  %12 = inttoptr i64 %11 to ptr
  tail call void @Llb_ManFlowCleanMarkB_rec(ptr noundef %12)
  %13 = getelementptr i8, ptr %.tr5, i64 16
  %.val4 = load ptr, ptr %13, align 8, !tbaa !32
  %14 = ptrtoint ptr %.val4 to i64
  %15 = and i64 %14, -2
  %16 = inttoptr i64 %15 to ptr
  %17 = getelementptr inbounds nuw i8, ptr %16, i64 24
  %18 = load i64, ptr %17, align 8
  %19 = and i64 %18, 32
  %20 = icmp eq i64 %19, 0
  br i1 %20, label %tailrecurse._crit_edge, label %tailrecurse

tailrecurse._crit_edge:                           ; preds = %tailrecurse, %1
  ret void
}